target datalayout = "e-m:e-p270:32:32-p271:32:32-p272:64:64-i64:64-i128:128-f80:128-n8:16:32:64-S128"
target triple = "x86_64-pc-linux-gnu"

; Function Attrs: mustprogress nounwind uwtable
define dso_local noundef zeroext i1 @_ZN4llvm9symbolize12MarkupFilter15tryPresentationERKNS0_10MarkupNodeE(ptr noundef nonnull align 8 dereferenceable(464) %0, ptr noundef nonnull align 8 dereferenceable(96) %1) #0 align 2 {
  %3 = alloca i1, align 1
  %4 = alloca ptr, align 8
  %5 = alloca ptr, align 8
  store ptr %0, ptr %4, align 8
  store ptr %1, ptr %5, align 8
  %6 = load ptr, ptr %4, align 8
  %7 = load ptr, ptr %5, align 8
  %8 = call noundef zeroext i1 @_ZN4llvm9symbolize12MarkupFilter9trySymbolERKNS0_10MarkupNodeE(ptr noundef nonnull align 8 dereferenceable(464) %6, ptr noundef nonnull align 8 dereferenceable(96) %7)
  br i1 %8, label %9, label %10

9:                                                ; preds = %2
  store i1 true, ptr %3, align 1
  br label %21

10:                                               ; preds = %2
  %11 = load ptr, ptr %5, align 8
  %12 = call noundef zeroext i1 @_ZN4llvm9symbolize12MarkupFilter5tryPCERKNS0_10MarkupNodeE(ptr noundef nonnull align 8 dereferenceable(464) %6, ptr noundef nonnull align 8 dereferenceable(96) %11)
  br i1 %12, label %13, label %14

13:                                               ; preds = %10
  store i1 true, ptr %3, align 1
  br label %21

14:                                               ; preds = %10
  %15 = load ptr, ptr %5, align 8
  %16 = call noundef zeroext i1 @_ZN4llvm9symbolize12MarkupFilter12tryBackTraceERKNS0_10MarkupNodeE(ptr noundef nonnull align 8 dereferenceable(464) %6, ptr noundef nonnull align 8 dereferenceable(96) %15)
  br i1 %16, label %17, label %18

17:                                               ; preds = %14
  store i1 true, ptr %3, align 1
  br label %21

18:                                               ; preds = %14
  %19 = load ptr, ptr %5, align 8
  %20 = call noundef zeroext i1 @_ZN4llvm9symbolize12MarkupFilter7tryDataERKNS0_10MarkupNodeE(ptr noundef nonnull align 8 dereferenceable(464) %6, ptr noundef nonnull align 8 dereferenceable(96) %19)
  store i1 %20, ptr %3, align 1
  br label %21

21:                                               ; preds = %18, %17, %13, %9
  %22 = load i1, ptr %3, align 1
  ret i1 %22
}