; Function Attrs: mustprogress nounwind uwtable
define dso_local noundef zeroext i1 @_ZN4llvm9symbolize12MarkupFilter15tryPresentationERKNS0_10MarkupNodeE(ptr noundef nonnull align 8 dereferenceable(464) %0, ptr noundef nonnull align 8 dereferenceable(96) %1) local_unnamed_addr #0 align 2 {
  %3 = tail call noundef zeroext i1 @_ZN4llvm9symbolize12MarkupFilter9trySymbolERKNS0_10MarkupNodeE(ptr noundef nonnull align 8 dereferenceable(464) %0, ptr noundef nonnull align 8 dereferenceable(96) %1)
  br i1 %3, label %10, label %4

4:                                                ; preds = %2
  %5 = tail call noundef zeroext i1 @_ZN4llvm9symbolize12MarkupFilter5tryPCERKNS0_10MarkupNodeE(ptr noundef nonnull align 8 dereferenceable(464) %0, ptr noundef nonnull align 8 dereferenceable(96) %1)
  br i1 %5, label %10, label %6

6:                                                ; preds = %4
  %7 = tail call noundef zeroext i1 @_ZN4llvm9symbolize12MarkupFilter12tryBackTraceERKNS0_10MarkupNodeE(ptr noundef nonnull align 8 dereferenceable(464) %0, ptr noundef nonnull align 8 dereferenceable(96) %1)
  br i1 %7, label %10, label %8

8:                                                ; preds = %6
  %9 = tail call noundef zeroext i1 @_ZN4llvm9symbolize12MarkupFilter7tryDataERKNS0_10MarkupNodeE(ptr noundef nonnull align 8 dereferenceable(464) %0, ptr noundef nonnull align 8 dereferenceable(96) %1)
  br label %10

10:                                               ; preds = %6, %4, %2, %8
  %.0 = phi i1 [ %9, %8 ], [ true, %2 ], [ true, %4 ], [ true, %6 ]
  ret i1 %.0
}